target datalayout = "e-m:e-p270:32:32-p271:32:32-p272:64:64-i64:64-i128:128-f80:128-n8:16:32:64-S128"
target triple = "x86_64-pc-linux-gnu"

%struct.b2Vec2 = type { float, float }
%struct.b2ShapeId = type { i32, i16, i16 }
%struct.ShapeUserData = type { i32, i8 }
%struct.RayCastContext = type { [3 x %struct.b2Vec2], [3 x %struct.b2Vec2], [3 x float], i32 }

; Function Attrs: mustprogress uwtable
define internal noundef float @_ZL23RayCastMultipleCallback9b2ShapeId6b2Vec2S0_fPv(i64 %0, <2 x float> %1, <2 x float> %2, float noundef %3, ptr noundef %4) #9 {
  %6 = alloca float, align 4
  %7 = alloca %struct.b2ShapeId, align 4
  %8 = alloca %struct.b2Vec2, align 4
  %9 = alloca %struct.b2Vec2, align 4
  %10 = alloca float, align 4
  %11 = alloca ptr, align 8
  %12 = alloca ptr, align 8
  %13 = alloca ptr, align 8
  %14 = alloca %struct.b2ShapeId, align 4
  %15 = alloca i32, align 4
  %16 = alloca i32, align 4
  store i64 %0, ptr %7, align 4
  store <2 x float> %1, ptr %8, align 4
  store <2 x float> %2, ptr %9, align 4
  store float %3, ptr %10, align 4, !tbaa !25
  store ptr %4, ptr %11, align 8, !tbaa !178
  call void @llvm.lifetime.start.p0(i64 8, ptr %12) #21
  %17 = load ptr, ptr %11, align 8, !tbaa !178
  store ptr %17, ptr %12, align 8, !tbaa !249
  call void @llvm.lifetime.start.p0(i64 8, ptr %13) #21
  call void @llvm.memcpy.p0.p0.i64(ptr align 4 %14, ptr align 4 %7, i64 8, i1 false), !tbaa.struct !225
  %18 = load i64, ptr %14, align 4
  %19 = call ptr @b2Shape_GetUserData(i64 %18)
  store ptr %19, ptr %13, align 8, !tbaa !251
  %20 = load ptr, ptr %13, align 8, !tbaa !251
  %21 = icmp ne ptr %20, null
  br i1 %21, label %22, label %28

22:                                               ; preds = %5
  %23 = load ptr, ptr %13, align 8, !tbaa !251
  %24 = getelementptr inbounds nuw %struct.ShapeUserData, ptr %23, i32 0, i32 1
  %25 = load i8, ptr %24, align 4, !tbaa !223, !range !19, !noundef !20
  %26 = trunc i8 %25 to i1
  br i1 %26, label %27, label %28

27:                                               ; preds = %22
  store float -1.000000e+00, ptr %6, align 4
  store i32 1, ptr %15, align 4
  br label %59

28:                                               ; preds = %22, %5
  call void @llvm.lifetime.start.p0(i64 4, ptr %16) #21
  %29 = load ptr, ptr %12, align 8, !tbaa !249
  %30 = getelementptr inbounds nuw %struct.RayCastContext, ptr %29, i32 0, i32 3
  %31 = load i32, ptr %30, align 4, !tbaa !244
  store i32 %31, ptr %16, align 4, !tbaa !4
  %32 = load ptr, ptr %12, align 8, !tbaa !249
  %33 = getelementptr inbounds nuw %struct.RayCastContext, ptr %32, i32 0, i32 0
  %34 = load i32, ptr %16, align 4, !tbaa !4
  %35 = sext i32 %34 to i64
  %36 = getelementptr inbounds [3 x %struct.b2Vec2], ptr %33, i64 0, i64 %35
  call void @llvm.memcpy.p0.p0.i64(ptr align 4 %36, ptr align 4 %8, i64 8, i1 false), !tbaa.struct !24
  %37 = load ptr, ptr %12, align 8, !tbaa !249
  %38 = getelementptr inbounds nuw %struct.RayCastContext, ptr %37, i32 0, i32 1
  %39 = load i32, ptr %16, align 4, !tbaa !4
  %40 = sext i32 %39 to i64
  %41 = getelementptr inbounds [3 x %struct.b2Vec2], ptr %38, i64 0, i64 %40
  call void @llvm.memcpy.p0.p0.i64(ptr align 4 %41, ptr align 4 %9, i64 8, i1 false), !tbaa.struct !24
  %42 = load float, ptr %10, align 4, !tbaa !25
  %43 = load ptr, ptr %12, align 8, !tbaa !249
  %44 = getelementptr inbounds nuw %struct.RayCastContext, ptr %43, i32 0, i32 2
  %45 = load i32, ptr %16, align 4, !tbaa !4
  %46 = sext i32 %45 to i64
  %47 = getelementptr inbounds [3 x float], ptr %44, i64 0, i64 %46
  store float %42, ptr %47, align 4, !tbaa !25
  %48 = load i32, ptr %16, align 4, !tbaa !4
  %49 = add nsw i32 %48, 1
  %50 = load ptr, ptr %12, align 8, !tbaa !249
  %51 = getelementptr inbounds nuw %struct.RayCastContext, ptr %50, i32 0, i32 3
  store i32 %49, ptr %51, align 4, !tbaa !244
  %52 = load ptr, ptr %12, align 8, !tbaa !249
  %53 = getelementptr inbounds nuw %struct.RayCastContext, ptr %52, i32 0, i32 3
  %54 = load i32, ptr %53, align 4, !tbaa !244
  %55 = icmp eq i32 %54, 3
  br i1 %55, label %56, label %57

56:                                               ; preds = %28
  store float 0.000000e+00, ptr %6, align 4
  store i32 1, ptr %15, align 4
  br label %58

57:                                               ; preds = %28
  store float 1.000000e+00, ptr %6, align 4
  store i32 1, ptr %15, align 4
  br label %58

58:                                               ; preds = %57, %56
  call void @llvm.lifetime.end.p0(i64 4, ptr %16) #21
  br label %59

59:                                               ; preds = %58, %27
  call void @llvm.lifetime.end.p0(i64 8, ptr %13) #21
  call void @llvm.lifetime.end.p0(i64 8, ptr %12) #21
  %60 = load float, ptr %6, align 4
  ret float %60
}