; Function Attrs: mustprogress uwtable
define internal noundef float @_ZL23RayCastMultipleCallback9b2ShapeId6b2Vec2S0_fPv(i64 %0, <2 x float> %1, <2 x float> %2, float noundef %3, ptr noundef captures(none) %4) #2 {
  %6 = tail call ptr @b2Shape_GetUserData(i64 %0)
  %.not = icmp eq ptr %6, null
  br i1 %.not, label %11, label %7

7:                                                ; preds = %5
  %8 = getelementptr inbounds nuw i8, ptr %6, i64 4
  %9 = load i8, ptr %8, align 4, !tbaa !201, !range !13, !noundef !14
  %10 = trunc nuw i8 %9 to i1
  br i1 %10, label %22, label %11

11:                                               ; preds = %7, %5
  %12 = getelementptr inbounds nuw i8, ptr %4, i64 60
  %13 = load i32, ptr %12, align 4, !tbaa !219
  %14 = sext i32 %13 to i64
  %15 = getelementptr inbounds [3 x %struct.b2Vec2], ptr %4, i64 0, i64 %14
  store <2 x float> %1, ptr %15, align 4
  %16 = getelementptr inbounds nuw i8, ptr %4, i64 24
  %17 = getelementptr inbounds [3 x %struct.b2Vec2], ptr %16, i64 0, i64 %14
  store <2 x float> %2, ptr %17, align 4
  %18 = getelementptr inbounds nuw i8, ptr %4, i64 48
  %19 = getelementptr inbounds [3 x float], ptr %18, i64 0, i64 %14
  store float %3, ptr %19, align 4, !tbaa !15
  %20 = add nsw i32 %13, 1
  store i32 %20, ptr %12, align 4, !tbaa !219
  %21 = icmp eq i32 %20, 3
  %. = select i1 %21, float 0.000000e+00, float 1.000000e+00
  br label %22

22:                                               ; preds = %7, %11
  %.0 = phi float [ %., %11 ], [ -1.000000e+00, %7 ]
  ret float %.0
}